; ModuleID = '41/1086.cpp'
source_filename = "41/1086.cpp"
target datalayout = "e-m:e-p270:32:32-p271:32:32-p272:64:64-i64:64-f80:128-n8:16:32:64-S128"
target triple = "x86_64-pc-linux-gnu"

%"class.std::ios_base::Init" = type { i8 }
%"class.std::basic_ostream" = type { i32 (...)**, %"class.std::basic_ios" }
%"class.std::basic_ios" = type { %"class.std::ios_base", %"class.std::basic_ostream"*, i8, i8, %"class.std::basic_streambuf"*, %"class.std::ctype"*, %"class.std::num_put"*, %"class.std::num_get"* }
%"class.std::ios_base" = type { i32 (...)**, i64, i64, i32, i32, i32, %"struct.std::ios_base::_Callback_list"*, %"struct.std::ios_base::_Words", [8 x %"struct.std::ios_base::_Words"], i32, %"struct.std::ios_base::_Words"*, %"class.std::locale" }
%"struct.std::ios_base::_Callback_list" = type { %"struct.std::ios_base::_Callback_list"*, void (i32, %"class.std::ios_base"*, i32)*, i32, i32 }
%"struct.std::ios_base::_Words" = type { i8*, i64 }
%"class.std::locale" = type { %"class.std::locale::_Impl"* }
%"class.std::locale::_Impl" = type { i32, %"class.std::locale::facet"**, i64, %"class.std::locale::facet"**, i8** }
%"class.std::locale::facet" = type <{ i32 (...)**, i32, [4 x i8] }>
%"class.std::basic_streambuf" = type { i32 (...)**, i8*, i8*, i8*, i8*, i8*, i8*, %"class.std::locale" }
%"class.std::ctype" = type <{ %"class.std::locale::facet.base", [4 x i8], %struct.__locale_struct*, i8, [7 x i8], i32*, i32*, i16*, i8, [256 x i8], [256 x i8], i8, [6 x i8] }>
%"class.std::locale::facet.base" = type <{ i32 (...)**, i32 }>
%struct.__locale_struct = type { [13 x %struct.__locale_data*], i16*, i32*, i32*, [13 x i8*] }
%struct.__locale_data = type opaque
%"class.std::num_put" = type { %"class.std::locale::facet.base", [4 x i8] }
%"class.std::num_get" = type { %"class.std::locale::facet.base", [4 x i8] }

@_ZStL8__ioinit = internal global %"class.std::ios_base::Init" zeroinitializer, align 1
@__dso_handle = external hidden global i8
@_ZSt4cout = external dso_local global %"class.std::basic_ostream", align 8
@.str = private unnamed_addr constant [2 x i8] c" \00", align 1
@llvm.global_ctors = appending global [1 x { i32, void ()*, i8* }] [{ i32, void ()*, i8* } { i32 65535, void ()* @_GLOBAL__sub_I_1086.cpp, i8* null }]

; Function Attrs: noinline uwtable
define internal void @__cxx_global_var_init() #0 section ".text.startup" {
  call void @_ZNSt8ios_base4InitC1Ev(%"class.std::ios_base::Init"* @_ZStL8__ioinit)
  %1 = call i32 @__cxa_atexit(void (i8*)* bitcast (void (%"class.std::ios_base::Init"*)* @_ZNSt8ios_base4InitD1Ev to void (i8*)*), i8* getelementptr inbounds (%"class.std::ios_base::Init", %"class.std::ios_base::Init"* @_ZStL8__ioinit, i32 0, i32 0), i8* @__dso_handle) #3
  ret void
}

declare dso_local void @_ZNSt8ios_base4InitC1Ev(%"class.std::ios_base::Init"*) unnamed_addr #1

; Function Attrs: nounwind
declare dso_local void @_ZNSt8ios_base4InitD1Ev(%"class.std::ios_base::Init"*) unnamed_addr #2

; Function Attrs: nounwind
declare dso_local i32 @__cxa_atexit(void (i8*)*, i8*, i8*) #3

; Function Attrs: noinline norecurse uwtable
define dso_local i32 @main() #4 {
  %1 = alloca i32, align 4
  %2 = alloca i32, align 4
  %3 = alloca i32, align 4
  %4 = alloca i32, align 4
  %5 = alloca i32, align 4
  %6 = alloca i32, align 4
  %7 = alloca i32, align 4
  %8 = alloca i32, align 4
  %9 = alloca i32, align 4
  %10 = alloca i32, align 4
  %11 = alloca i32, align 4
  store i32 0, i32* %1, align 4
  store i32 1, i32* %2, align 4
  br label %12

12:                                               ; preds = %163, %0
  %13 = load i32, i32* %2, align 4
  %14 = icmp slt i32 %13, 6
  br i1 %14, label %15, label %166

15:                                               ; preds = %12
  store i32 1, i32* %3, align 4
  br label %16

16:                                               ; preds = %159, %15
  %17 = load i32, i32* %3, align 4
  %18 = icmp slt i32 %17, 6
  br i1 %18, label %19, label %162

19:                                               ; preds = %16
  store i32 1, i32* %4, align 4
  br label %20

20:                                               ; preds = %155, %19
  %21 = load i32, i32* %4, align 4
  %22 = icmp slt i32 %21, 6
  br i1 %22, label %23, label %158

23:                                               ; preds = %20
  store i32 1, i32* %5, align 4
  br label %24

24:                                               ; preds = %151, %23
  %25 = load i32, i32* %5, align 4
  %26 = icmp slt i32 %25, 6
  br i1 %26, label %27, label %154

27:                                               ; preds = %24
  store i32 1, i32* %6, align 4
  br label %28

28:                                               ; preds = %147, %27
  %29 = load i32, i32* %6, align 4
  %30 = icmp slt i32 %29, 6
  br i1 %30, label %31, label %150

31:                                               ; preds = %28
  %32 = load i32, i32* %2, align 4
  %33 = load i32, i32* %3, align 4
  %34 = add nsw i32 %32, %33
  %35 = load i32, i32* %4, align 4
  %36 = add nsw i32 %34, %35
  %37 = load i32, i32* %5, align 4
  %38 = add nsw i32 %36, %37
  %39 = load i32, i32* %6, align 4
  %40 = add nsw i32 %38, %39
  %41 = icmp eq i32 %40, 15
  br i1 %41, label %42, label %146

42:                                               ; preds = %31
  %43 = load i32, i32* %2, align 4
  %44 = load i32, i32* %3, align 4
  %45 = mul nsw i32 %43, %44
  %46 = load i32, i32* %4, align 4
  %47 = mul nsw i32 %45, %46
  %48 = load i32, i32* %5, align 4
  %49 = mul nsw i32 %47, %48
  %50 = load i32, i32* %6, align 4
  %51 = mul nsw i32 %49, %50
  %52 = icmp eq i32 %51, 120
  br i1 %52, label %53, label %146

53:                                               ; preds = %42
  %54 = load i32, i32* %6, align 4
  %55 = icmp ne i32 %54, 2
  br i1 %55, label %56, label %146

56:                                               ; preds = %53
  %57 = load i32, i32* %6, align 4
  %58 = icmp ne i32 %57, 3
  br i1 %58, label %59, label %146

59:                                               ; preds = %56
  %60 = load i32, i32* %6, align 4
  %61 = icmp eq i32 %60, 1
  %62 = zext i1 %61 to i32
  store i32 %62, i32* %7, align 4
  %63 = load i32, i32* %3, align 4
  %64 = icmp eq i32 %63, 2
  %65 = zext i1 %64 to i32
  store i32 %65, i32* %8, align 4
  %66 = load i32, i32* %2, align 4
  %67 = icmp eq i32 %66, 5
  %68 = zext i1 %67 to i32
  store i32 %68, i32* %9, align 4
  %69 = load i32, i32* %4, align 4
  %70 = icmp ne i32 %69, 1
  %71 = zext i1 %70 to i32
  store i32 %71, i32* %10, align 4
  %72 = load i32, i32* %5, align 4
  %73 = icmp eq i32 %72, 1
  %74 = zext i1 %73 to i32
  store i32 %74, i32* %11, align 4
  %75 = load i32, i32* %2, align 4
  %76 = icmp eq i32 %75, 1
  br i1 %76, label %80, label %77

77:                                               ; preds = %59
  %78 = load i32, i32* %2, align 4
  %79 = icmp eq i32 %78, 2
  br label %80

80:                                               ; preds = %77, %59
  %81 = phi i1 [ true, %59 ], [ %79, %77 ]
  %82 = zext i1 %81 to i32
  %83 = load i32, i32* %7, align 4
  %84 = icmp eq i32 %82, %83
  br i1 %84, label %85, label %145

85:                                               ; preds = %80
  %86 = load i32, i32* %3, align 4
  %87 = icmp eq i32 %86, 1
  br i1 %87, label %91, label %88

88:                                               ; preds = %85
  %89 = load i32, i32* %3, align 4
  %90 = icmp eq i32 %89, 2
  br label %91

91:                                               ; preds = %88, %85
  %92 = phi i1 [ true, %85 ], [ %90, %88 ]
  %93 = zext i1 %92 to i32
  %94 = load i32, i32* %8, align 4
  %95 = icmp eq i32 %93, %94
  br i1 %95, label %96, label %145

96:                                               ; preds = %91
  %97 = load i32, i32* %4, align 4
  %98 = icmp eq i32 %97, 1
  br i1 %98, label %102, label %99

99:                                               ; preds = %96
  %100 = load i32, i32* %4, align 4
  %101 = icmp eq i32 %100, 2
  br label %102

102:                                              ; preds = %99, %96
  %103 = phi i1 [ true, %96 ], [ %101, %99 ]
  %104 = zext i1 %103 to i32
  %105 = load i32, i32* %9, align 4
  %106 = icmp eq i32 %104, %105
  br i1 %106, label %107, label %145

107:                                              ; preds = %102
  %108 = load i32, i32* %5, align 4
  %109 = icmp eq i32 %108, 1
  br i1 %109, label %113, label %110

110:                                              ; preds = %107
  %111 = load i32, i32* %5, align 4
  %112 = icmp eq i32 %111, 2
  br label %113

113:                                              ; preds = %110, %107
  %114 = phi i1 [ true, %107 ], [ %112, %110 ]
  %115 = zext i1 %114 to i32
  %116 = load i32, i32* %10, align 4
  %117 = icmp eq i32 %115, %116
  br i1 %117, label %118, label %145

118:                                              ; preds = %113
  %119 = load i32, i32* %6, align 4
  %120 = icmp eq i32 %119, 1
  br i1 %120, label %124, label %121

121:                                              ; preds = %118
  %122 = load i32, i32* %6, align 4
  %123 = icmp eq i32 %122, 2
  br label %124

124:                                              ; preds = %121, %118
  %125 = phi i1 [ true, %118 ], [ %123, %121 ]
  %126 = zext i1 %125 to i32
  %127 = load i32, i32* %11, align 4
  %128 = icmp eq i32 %126, %127
  br i1 %128, label %129, label %145

129:                                              ; preds = %124
  %130 = load i32, i32* %2, align 4
  %131 = call dereferenceable(272) %"class.std::basic_ostream"* @_ZNSolsEi(%"class.std::basic_ostream"* @_ZSt4cout, i32 %130)
  %132 = call dereferenceable(272) %"class.std::basic_ostream"* @_ZStlsISt11char_traitsIcEERSt13basic_ostreamIcT_ES5_PKc(%"class.std::basic_ostream"* dereferenceable(272) %131, i8* getelementptr inbounds ([2 x i8], [2 x i8]* @.str, i64 0, i64 0))
  %133 = load i32, i32* %3, align 4
  %134 = call dereferenceable(272) %"class.std::basic_ostream"* @_ZNSolsEi(%"class.std::basic_ostream"* %132, i32 %133)
  %135 = call dereferenceable(272) %"class.std::basic_ostream"* @_ZStlsISt11char_traitsIcEERSt13basic_ostreamIcT_ES5_PKc(%"class.std::basic_ostream"* dereferenceable(272) %134, i8* getelementptr inbounds ([2 x i8], [2 x i8]* @.str, i64 0, i64 0))
  %136 = load i32, i32* %4, align 4
  %137 = call dereferenceable(272) %"class.std::basic_ostream"* @_ZNSolsEi(%"class.std::basic_ostream"* %135, i32 %136)
  %138 = call dereferenceable(272) %"class.std::basic_ostream"* @_ZStlsISt11char_traitsIcEERSt13basic_ostreamIcT_ES5_PKc(%"class.std::basic_ostream"* dereferenceable(272) %137, i8* getelementptr inbounds ([2 x i8], [2 x i8]* @.str, i64 0, i64 0))
  %139 = load i32, i32* %5, align 4
  %140 = call dereferenceable(272) %"class.std::basic_ostream"* @_ZNSolsEi(%"class.std::basic_ostream"* %138, i32 %139)
  %141 = call dereferenceable(272) %"class.std::basic_ostream"* @_ZStlsISt11char_traitsIcEERSt13basic_ostreamIcT_ES5_PKc(%"class.std::basic_ostream"* dereferenceable(272) %140, i8* getelementptr inbounds ([2 x i8], [2 x i8]* @.str, i64 0, i64 0))
  %142 = load i32, i32* %6, align 4
  %143 = call dereferenceable(272) %"class.std::basic_ostream"* @_ZNSolsEi(%"class.std::basic_ostream"* %141, i32 %142)
  %144 = call dereferenceable(272) %"class.std::basic_ostream"* @_ZNSolsEPFRSoS_E(%"class.std::basic_ostream"* %143, %"class.std::basic_ostream"* (%"class.std::basic_ostream"*)* @_ZSt4endlIcSt11char_traitsIcEERSt13basic_ostreamIT_T0_ES6_)
  br label %145

145:                                              ; preds = %129, %124, %113, %102, %91, %80
  br label %146

146:                                              ; preds = %145, %56, %53, %42, %31
  br label %147

147:                                              ; preds = %146
  %148 = load i32, i32* %6, align 4
  %149 = add nsw i32 %148, 1
  store i32 %149, i32* %6, align 4
  br label %28

150:                                              ; preds = %28
  br label %151

151:                                              ; preds = %150
  %152 = load i32, i32* %5, align 4
  %153 = add nsw i32 %152, 1
  store i32 %153, i32* %5, align 4
  br label %24

154:                                              ; preds = %24
  br label %155

155:                                              ; preds = %154
  %156 = load i32, i32* %4, align 4
  %157 = add nsw i32 %156, 1
  store i32 %157, i32* %4, align 4
  br label %20

158:                                              ; preds = %20
  br label %159

159:                                              ; preds = %158
  %160 = load i32, i32* %3, align 4
  %161 = add nsw i32 %160, 1
  store i32 %161, i32* %3, align 4
  br label %16

162:                                              ; preds = %16
  br label %163

163:                                              ; preds = %162
  %164 = load i32, i32* %2, align 4
  %165 = add nsw i32 %164, 1
  store i32 %165, i32* %2, align 4
  br label %12

166:                                              ; preds = %12
  ret i32 0
}

declare dso_local dereferenceable(272) %"class.std::basic_ostream"* @_ZStlsISt11char_traitsIcEERSt13basic_ostreamIcT_ES5_PKc(%"class.std::basic_ostream"* dereferenceable(272), i8*) #1

declare dso_local dereferenceable(272) %"class.std::basic_ostream"* @_ZNSolsEi(%"class.std::basic_ostream"*, i32) #1

declare dso_local dereferenceable(272) %"class.std::basic_ostream"* @_ZNSolsEPFRSoS_E(%"class.std::basic_ostream"*, %"class.std::basic_ostream"* (%"class.std::basic_ostream"*)*) #1

declare dso_local dereferenceable(272) %"class.std::basic_ostream"* @_ZSt4endlIcSt11char_traitsIcEERSt13basic_ostreamIT_T0_ES6_(%"class.std::basic_ostream"* dereferenceable(272)) #1

; Function Attrs: noinline uwtable
define internal void @_GLOBAL__sub_I_1086.cpp() #0 section ".text.startup" {
  call void @__cxx_global_var_init()
  ret void
}


!llvm.module.flags = !{!0}
!llvm.ident = !{!1}

!0 = !{i32 1, !"wchar_size", i32 4}
!1 = !{!"clang version 10.0.0-4ubuntu1 "}
