; ModuleID = 'source-C-CXX/40/1086.cpp'
source_filename = "source-C-CXX/40/1086.cpp"
target datalayout = "e-m:e-p270:32:32-p271:32:32-p272:64:64-i64:64-f80:128-n8:16:32:64-S128"
target triple = "x86_64-pc-linux-gnu"

%"class.std::ios_base::Init" = type { i8 }
%"class.std::basic_ostream" = type { i32 (...)**, %"class.std::basic_ios" }
%"class.std::basic_ios" = type { %"class.std::ios_base", %"class.std::basic_ostream"*, i8, i8, %"class.std::basic_streambuf"*, %"class.std::ctype"*, %"class.std::num_put"*, %"class.std::num_get"* }
%"class.std::ios_base" = type { i32 (...)**, i64, i64, i32, i32, i32, %"struct.std::ios_base::_Callback_list"*, %"struct.std::ios_base::_Words", [8 x %"struct.std::ios_base::_Words"], i32, %"struct.std::ios_base::_Words"*, %"class.std::locale" }
%"struct.std::ios_base::_Callback_list" = type { %"struct.std::ios_base::_Callback_list"*, void (i32, %"class.std::ios_base"*, i32)*, i32, i32 }
%"struct.std::ios_base::_Words" = type { i8*, i64 }
%"class.std::locale" = type { %"class.std::locale::_Impl"* }
%"class.std::locale::_Impl" = type { i32, %"class.std::locale::facet"**, i64, %"class.std::locale::facet"**, i8** }
%"class.std::locale::facet" = type <{ i32 (...)**, i32, [4 x i8] }>
%"class.std::basic_streambuf" = type { i32 (...)**, i8*, i8*, i8*, i8*, i8*, i8*, %"class.std::locale" }
%"class.std::ctype" = type <{ %"class.std::locale::facet.base", [4 x i8], %struct.__locale_struct*, i8, [7 x i8], i32*, i32*, i16*, i8, [256 x i8], [256 x i8], i8, [6 x i8] }>
%"class.std::locale::facet.base" = type <{ i32 (...)**, i32 }>
%struct.__locale_struct = type { [13 x %struct.__locale_data*], i16*, i32*, i32*, [13 x i8*] }
%struct.__locale_data = type opaque
%"class.std::num_put" = type { %"class.std::locale::facet.base", [4 x i8] }
%"class.std::num_get" = type { %"class.std::locale::facet.base", [4 x i8] }

@_ZStL8__ioinit = internal global %"class.std::ios_base::Init" zeroinitializer, align 1
@__dso_handle = external hidden global i8
@_ZSt4cout = external global %"class.std::basic_ostream", align 8
@.str = private unnamed_addr constant [2 x i8] c" \00", align 1
@llvm.global_ctors = appending global [1 x { i32, void ()*, i8* }] [{ i32, void ()*, i8* } { i32 65535, void ()* @_GLOBAL__sub_I_1086.cpp, i8* null }]

declare void @_ZNSt8ios_base4InitC1Ev(%"class.std::ios_base::Init"* nonnull align 1 dereferenceable(1)) unnamed_addr #0

; Function Attrs: nounwind
declare void @_ZNSt8ios_base4InitD1Ev(%"class.std::ios_base::Init"* nonnull align 1 dereferenceable(1)) unnamed_addr #1

; Function Attrs: nofree nounwind
declare i32 @__cxa_atexit(void (i8*)*, i8*, i8*) local_unnamed_addr #2

; Function Attrs: mustprogress norecurse sspstrong uwtable
define dso_local i32 @main() local_unnamed_addr #3 {
  br label %1

1:                                                ; preds = %0, %98
  %2 = phi i32 [ 1, %0 ], [ %99, %98 ]
  %3 = icmp eq i32 %2, 5
  %4 = add nsw i32 %2, -1
  %5 = icmp ugt i32 %4, 1
  br label %6

6:                                                ; preds = %1, %95
  %7 = phi i32 [ 1, %1 ], [ %96, %95 ]
  %8 = add nuw nsw i32 %7, %2
  %9 = mul nuw nsw i32 %7, %2
  %10 = icmp eq i32 %7, 2
  %11 = add nsw i32 %7, -1
  %12 = icmp ugt i32 %11, 1
  %13 = xor i1 %10, %12
  br i1 %13, label %14, label %95

14:                                               ; preds = %6, %22
  %15 = phi i32 [ %23, %22 ], [ 1, %6 ]
  %16 = add nuw nsw i32 %8, %15
  %17 = mul nuw nsw i32 %9, %15
  %18 = icmp ne i32 %15, 1
  %19 = add nsw i32 %15, -1
  %20 = icmp ugt i32 %19, 1
  %21 = xor i1 %3, %20
  br i1 %21, label %25, label %22

22:                                               ; preds = %33, %14
  %23 = add nuw nsw i32 %15, 1
  %24 = icmp eq i32 %23, 6
  br i1 %24, label %95, label %14, !llvm.loop !5

25:                                               ; preds = %14, %33
  %26 = phi i32 [ %34, %33 ], [ 1, %14 ]
  %27 = add nuw nsw i32 %16, %26
  %28 = mul nuw nsw i32 %17, %26
  %29 = icmp eq i32 %26, 1
  %30 = add nsw i32 %26, -1
  %31 = icmp ugt i32 %30, 1
  %32 = xor i1 %18, %31
  br i1 %32, label %36, label %33

33:                                               ; preds = %91, %25
  %34 = add nuw nsw i32 %26, 1
  %35 = icmp eq i32 %34, 6
  br i1 %35, label %22, label %25, !llvm.loop !7

36:                                               ; preds = %25, %91
  %37 = phi i32 [ %92, %91 ], [ 1, %25 ]
  %38 = add nuw nsw i32 %27, %37
  %39 = icmp eq i32 %38, 15
  br i1 %39, label %40, label %91

40:                                               ; preds = %36
  %41 = mul nuw nsw i32 %28, %37
  %42 = icmp eq i32 %41, 120
  %43 = and i32 %37, 2147483646
  %44 = icmp ne i32 %43, 2
  %45 = and i1 %44, %42
  %46 = icmp eq i32 %37, 1
  %47 = xor i1 %5, %46
  %48 = select i1 %45, i1 %47, i1 false
  br i1 %48, label %49, label %91

49:                                               ; preds = %40
  %50 = add nsw i32 %37, -1
  %51 = icmp ugt i32 %50, 1
  %52 = xor i1 %29, %51
  br i1 %52, label %53, label %91

53:                                               ; preds = %49
  %54 = tail call nonnull align 8 dereferenceable(8) %"class.std::basic_ostream"* @_ZNSolsEi(%"class.std::basic_ostream"* nonnull align 8 dereferenceable(8) @_ZSt4cout, i32 %2)
  %55 = tail call nonnull align 8 dereferenceable(8) %"class.std::basic_ostream"* @_ZSt16__ostream_insertIcSt11char_traitsIcEERSt13basic_ostreamIT_T0_ES6_PKS3_l(%"class.std::basic_ostream"* nonnull align 8 dereferenceable(8) %54, i8* nonnull getelementptr inbounds ([2 x i8], [2 x i8]* @.str, i64 0, i64 0), i64 1)
  %56 = tail call nonnull align 8 dereferenceable(8) %"class.std::basic_ostream"* @_ZNSolsEi(%"class.std::basic_ostream"* nonnull align 8 dereferenceable(8) %54, i32 %7)
  %57 = tail call nonnull align 8 dereferenceable(8) %"class.std::basic_ostream"* @_ZSt16__ostream_insertIcSt11char_traitsIcEERSt13basic_ostreamIT_T0_ES6_PKS3_l(%"class.std::basic_ostream"* nonnull align 8 dereferenceable(8) %56, i8* nonnull getelementptr inbounds ([2 x i8], [2 x i8]* @.str, i64 0, i64 0), i64 1)
  %58 = tail call nonnull align 8 dereferenceable(8) %"class.std::basic_ostream"* @_ZNSolsEi(%"class.std::basic_ostream"* nonnull align 8 dereferenceable(8) %56, i32 %15)
  %59 = tail call nonnull align 8 dereferenceable(8) %"class.std::basic_ostream"* @_ZSt16__ostream_insertIcSt11char_traitsIcEERSt13basic_ostreamIT_T0_ES6_PKS3_l(%"class.std::basic_ostream"* nonnull align 8 dereferenceable(8) %58, i8* nonnull getelementptr inbounds ([2 x i8], [2 x i8]* @.str, i64 0, i64 0), i64 1)
  %60 = tail call nonnull align 8 dereferenceable(8) %"class.std::basic_ostream"* @_ZNSolsEi(%"class.std::basic_ostream"* nonnull align 8 dereferenceable(8) %58, i32 %26)
  %61 = tail call nonnull align 8 dereferenceable(8) %"class.std::basic_ostream"* @_ZSt16__ostream_insertIcSt11char_traitsIcEERSt13basic_ostreamIT_T0_ES6_PKS3_l(%"class.std::basic_ostream"* nonnull align 8 dereferenceable(8) %60, i8* nonnull getelementptr inbounds ([2 x i8], [2 x i8]* @.str, i64 0, i64 0), i64 1)
  %62 = tail call nonnull align 8 dereferenceable(8) %"class.std::basic_ostream"* @_ZNSolsEi(%"class.std::basic_ostream"* nonnull align 8 dereferenceable(8) %60, i32 %37)
  %63 = bitcast %"class.std::basic_ostream"* %62 to i8**
  %64 = load i8*, i8** %63, align 8, !tbaa !8
  %65 = getelementptr i8, i8* %64, i64 -24
  %66 = bitcast i8* %65 to i64*
  %67 = load i64, i64* %66, align 8
  %68 = bitcast %"class.std::basic_ostream"* %62 to i8*
  %69 = add nsw i64 %67, 240
  %70 = getelementptr inbounds i8, i8* %68, i64 %69
  %71 = bitcast i8* %70 to %"class.std::ctype"**
  %72 = load %"class.std::ctype"*, %"class.std::ctype"** %71, align 8, !tbaa !11
  %73 = icmp eq %"class.std::ctype"* %72, null
  br i1 %73, label %94, label %74

74:                                               ; preds = %53
  %75 = getelementptr inbounds %"class.std::ctype", %"class.std::ctype"* %72, i64 0, i32 8
  %76 = load i8, i8* %75, align 8, !tbaa !16
  %77 = icmp eq i8 %76, 0
  br i1 %77, label %81, label %78

78:                                               ; preds = %74
  %79 = getelementptr inbounds %"class.std::ctype", %"class.std::ctype"* %72, i64 0, i32 9, i64 10
  %80 = load i8, i8* %79, align 1, !tbaa !18
  br label %87

81:                                               ; preds = %74
  tail call void @_ZNKSt5ctypeIcE13_M_widen_initEv(%"class.std::ctype"* nonnull align 8 dereferenceable(570) %72)
  %82 = bitcast %"class.std::ctype"* %72 to i8 (%"class.std::ctype"*, i8)***
  %83 = load i8 (%"class.std::ctype"*, i8)**, i8 (%"class.std::ctype"*, i8)*** %82, align 8, !tbaa !8
  %84 = getelementptr inbounds i8 (%"class.std::ctype"*, i8)*, i8 (%"class.std::ctype"*, i8)** %83, i64 6
  %85 = load i8 (%"class.std::ctype"*, i8)*, i8 (%"class.std::ctype"*, i8)** %84, align 8
  %86 = tail call signext i8 %85(%"class.std::ctype"* nonnull align 8 dereferenceable(570) %72, i8 signext 10)
  br label %87

87:                                               ; preds = %81, %78
  %88 = phi i8 [ %80, %78 ], [ %86, %81 ]
  %89 = tail call nonnull align 8 dereferenceable(8) %"class.std::basic_ostream"* @_ZNSo3putEc(%"class.std::basic_ostream"* nonnull align 8 dereferenceable(8) %62, i8 signext %88)
  %90 = tail call nonnull align 8 dereferenceable(8) %"class.std::basic_ostream"* @_ZNSo5flushEv(%"class.std::basic_ostream"* nonnull align 8 dereferenceable(8) %89)
  br label %91

91:                                               ; preds = %87, %49, %40, %36
  %92 = add nuw nsw i32 %37, 1
  %93 = icmp eq i32 %92, 6
  br i1 %93, label %33, label %36, !llvm.loop !19

94:                                               ; preds = %53
  tail call void @_ZSt16__throw_bad_castv() #6
  unreachable

95:                                               ; preds = %22, %6
  %96 = add nuw nsw i32 %7, 1
  %97 = icmp eq i32 %96, 6
  br i1 %97, label %98, label %6, !llvm.loop !20

98:                                               ; preds = %95
  %99 = add nuw nsw i32 %2, 1
  %100 = icmp eq i32 %99, 6
  br i1 %100, label %101, label %1, !llvm.loop !21

101:                                              ; preds = %98
  ret i32 0
}

declare nonnull align 8 dereferenceable(8) %"class.std::basic_ostream"* @_ZNSolsEi(%"class.std::basic_ostream"* nonnull align 8 dereferenceable(8), i32) local_unnamed_addr #0

declare nonnull align 8 dereferenceable(8) %"class.std::basic_ostream"* @_ZSt16__ostream_insertIcSt11char_traitsIcEERSt13basic_ostreamIT_T0_ES6_PKS3_l(%"class.std::basic_ostream"* nonnull align 8 dereferenceable(8), i8*, i64) local_unnamed_addr #0

declare nonnull align 8 dereferenceable(8) %"class.std::basic_ostream"* @_ZNSo3putEc(%"class.std::basic_ostream"* nonnull align 8 dereferenceable(8), i8 signext) local_unnamed_addr #0

declare nonnull align 8 dereferenceable(8) %"class.std::basic_ostream"* @_ZNSo5flushEv(%"class.std::basic_ostream"* nonnull align 8 dereferenceable(8)) local_unnamed_addr #0

; Function Attrs: noreturn
declare void @_ZSt16__throw_bad_castv() local_unnamed_addr #4

declare void @_ZNKSt5ctypeIcE13_M_widen_initEv(%"class.std::ctype"* nonnull align 8 dereferenceable(570)) local_unnamed_addr #0

; Function Attrs: sspstrong uwtable
define internal void @_GLOBAL__sub_I_1086.cpp() #5 section ".text.startup" {
  tail call void @_ZNSt8ios_base4InitC1Ev(%"class.std::ios_base::Init"* nonnull align 1 dereferenceable(1) @_ZStL8__ioinit)
  %1 = tail call i32 @__cxa_atexit(void (i8*)* bitcast (void (%"class.std::ios_base::Init"*)* @_ZNSt8ios_base4InitD1Ev to void (i8*)*), i8* getelementptr inbounds (%"class.std::ios_base::Init", %"class.std::ios_base::Init"* @_ZStL8__ioinit, i64 0, i32 0), i8* nonnull @__dso_handle) #7
  ret void
}


!llvm.module.flags = !{!0, !1, !2, !3}
!llvm.ident = !{!4}

!0 = !{i32 1, !"wchar_size", i32 4}
!1 = !{i32 7, !"PIC Level", i32 2}
!2 = !{i32 7, !"PIE Level", i32 2}
!3 = !{i32 7, !"uwtable", i32 1}
!4 = !{!"clang version 13.0.0"}
!5 = distinct !{!5, !6}
!6 = !{!"llvm.loop.mustprogress"}
!7 = distinct !{!7, !6}
!8 = !{!9, !9, i64 0}
!9 = !{!"vtable pointer", !10, i64 0}
!10 = !{!"Simple C++ TBAA"}
!11 = !{!12, !13, i64 240}
!12 = !{!"_ZTSSt9basic_iosIcSt11char_traitsIcEE", !13, i64 216, !14, i64 224, !15, i64 225, !13, i64 232, !13, i64 240, !13, i64 248, !13, i64 256}
!13 = !{!"any pointer", !14, i64 0}
!14 = !{!"omnipotent char", !10, i64 0}
!15 = !{!"bool", !14, i64 0}
!16 = !{!17, !14, i64 56}
!17 = !{!"_ZTSSt5ctypeIcE", !13, i64 16, !15, i64 24, !13, i64 32, !13, i64 40, !13, i64 48, !14, i64 56, !14, i64 57, !14, i64 313, !14, i64 569}
!18 = !{!14, !14, i64 0}
!19 = distinct !{!19, !6}
!20 = distinct !{!20, !6}
!21 = distinct !{!21, !6}
